; Function Attrs: mustprogress uwtable
define hidden noundef i32 @_ZN2cv7barcode12patternMatchERKNS0_7CounterERKSt6vectorIiSaIiEEj(ptr nocapture noundef nonnull readonly align 8 dereferenceable(28) %0, ptr nocapture noundef nonnull readonly align 8 dereferenceable(24) %1, i32 noundef %2) local_unnamed_addr #5 personality ptr @__gxx_personality_v0 {
  %4 = alloca %"class.std::__cxx11::basic_string", align 8
  %5 = alloca %"class.std::allocator.12", align 1
  %6 = getelementptr inbounds i8, ptr %0, i64 8
  %7 = load ptr, ptr %6, align 8
  %8 = load ptr, ptr %0, align 8
  %9 = ptrtoint ptr %7 to i64
  %10 = ptrtoint ptr %8 to i64
  %11 = sub i64 %9, %10
  %12 = ashr exact i64 %11, 2
  %13 = getelementptr inbounds i8, ptr %1, i64 8
  %14 = load ptr, ptr %13, align 8
  %15 = load ptr, ptr %1, align 8
  %16 = ptrtoint ptr %14 to i64
  %17 = ptrtoint ptr %15 to i64
  %18 = sub i64 %16, %17
  %19 = icmp eq i64 %11, %18
  br i1 %19, label %28, label %20

20:                                               ; preds = %3
  call void @_ZNSaIcEC1Ev(ptr noundef nonnull align 1 dereferenceable(1) %5) #17
  invoke void @_ZNSt7__cxx1112basic_stringIcSt11char_traitsIcESaIcEEC1EPKcRKS3_(ptr noundef nonnull align 8 dereferenceable(32) %4, ptr noundef nonnull @.str, ptr noundef nonnull align 1 dereferenceable(1) %5)
          to label %21 unwind label %23

21:                                               ; preds = %20
  invoke void @_ZN2cv5errorEiRKNSt7__cxx1112basic_stringIcSt11char_traitsIcESaIcEEEPKcS9_i(i32 noundef -215, ptr noundef nonnull align 8 dereferenceable(32) %4, ptr noundef nonnull @__func__._ZN2cv7barcode12patternMatchERKNS0_7CounterERKSt6vectorIiSaIiEEj, ptr noundef nonnull @.str.1, i32 noundef 114) #14
          to label %22 unwind label %25

22:                                               ; preds = %21
  unreachable

23:                                               ; preds = %20
  %24 = landingpad { ptr, i32 }
          cleanup
  br label %27

25:                                               ; preds = %21
  %26 = landingpad { ptr, i32 }
          cleanup
  call void @_ZNSt7__cxx1112basic_stringIcSt11char_traitsIcESaIcEED1Ev(ptr noundef nonnull align 8 dereferenceable(32) %4) #17
  br label %27

27:                                               ; preds = %25, %23
  %.pn = phi { ptr, i32 } [ %26, %25 ], [ %24, %23 ]
  call void @_ZNSaIcED1Ev(ptr noundef nonnull align 1 dereferenceable(1) %5) #17
  resume { ptr, i32 } %.pn

28:                                               ; preds = %3
  %29 = getelementptr inbounds i8, ptr %0, i64 24
  %30 = load i32, ptr %29, align 8
  %.not5.i.i = icmp eq ptr %15, %14
  br i1 %.not5.i.i, label %_ZSt10accumulateIN9__gnu_cxx17__normal_iteratorIPKiSt6vectorIiSaIiEEEEiET0_T_S9_S8_.exit.i, label %.lr.ph.i.i

.lr.ph.i.i:                                       ; preds = %28, %.lr.ph.i.i
  %.07.i.i = phi i32 [ %32, %.lr.ph.i.i ], [ 0, %28 ]
  %.sroa.02.06.i.i = phi ptr [ %33, %.lr.ph.i.i ], [ %15, %28 ]
  %31 = load i32, ptr %.sroa.02.06.i.i, align 4
  %32 = add nsw i32 %31, %.07.i.i
  %33 = getelementptr inbounds i8, ptr %.sroa.02.06.i.i, i64 4
  %.not.i.i = icmp eq ptr %33, %14
  br i1 %.not.i.i, label %_ZSt10accumulateIN9__gnu_cxx17__normal_iteratorIPKiSt6vectorIiSaIiEEEEiET0_T_S9_S8_.exit.i, label %.lr.ph.i.i, !llvm.loop !13

_ZSt10accumulateIN9__gnu_cxx17__normal_iteratorIPKiSt6vectorIiSaIiEEEEiET0_T_S9_S8_.exit.i: ; preds = %.lr.ph.i.i, %28
  %.0.lcssa.i.i = phi i32 [ 0, %28 ], [ %32, %.lr.ph.i.i ]
  %34 = icmp slt i32 %30, %.0.lcssa.i.i
  br i1 %34, label %_ZN2cv7barcodeL20patternMatchVarianceERKNS0_7CounterERKSt6vectorIiSaIiEEj.exit, label %35

35:                                               ; preds = %_ZSt10accumulateIN9__gnu_cxx17__normal_iteratorIPKiSt6vectorIiSaIiEEEEiET0_T_S9_S8_.exit.i
  %36 = shl i32 %30, 8
  %37 = sdiv i32 %36, %.0.lcssa.i.i
  %38 = mul i32 %37, %2
  %39 = lshr i32 %38, 8
  %.not.i = icmp eq ptr %7, %8
  br i1 %.not.i, label %._crit_edge.i, label %.lr.ph.i

.lr.ph.i:                                         ; preds = %35, %50
  %40 = phi i64 [ %53, %50 ], [ 0, %35 ]
  %.0273.i = phi i32 [ %51, %50 ], [ 0, %35 ]
  %.0282.i = phi i32 [ %52, %50 ], [ 0, %35 ]
  %41 = getelementptr inbounds i32, ptr %8, i64 %40
  %42 = load i32, ptr %41, align 4
  %43 = shl i32 %42, 8
  %44 = getelementptr inbounds i32, ptr %15, i64 %40
  %45 = load i32, ptr %44, align 4
  %46 = mul nsw i32 %45, %37
  %47 = sub nsw i32 %43, %46
  %48 = tail call i32 @llvm.abs.i32(i32 %47, i1 true)
  %49 = icmp ugt i32 %48, %39
  br i1 %49, label %_ZN2cv7barcodeL20patternMatchVarianceERKNS0_7CounterERKSt6vectorIiSaIiEEj.exit, label %50

50:                                               ; preds = %.lr.ph.i
  %51 = add i32 %48, %.0273.i
  %52 = add i32 %.0282.i, 1
  %53 = zext i32 %52 to i64
  %54 = icmp ugt i64 %12, %53
  br i1 %54, label %.lr.ph.i, label %._crit_edge.i, !llvm.loop !14

._crit_edge.i:                                    ; preds = %50, %35
  %.027.lcssa.i = phi i32 [ 0, %35 ], [ %51, %50 ]
  %55 = udiv i32 %.027.lcssa.i, %30
  br label %_ZN2cv7barcodeL20patternMatchVarianceERKNS0_7CounterERKSt6vectorIiSaIiEEj.exit

_ZN2cv7barcodeL20patternMatchVarianceERKNS0_7CounterERKSt6vectorIiSaIiEEj.exit: ; preds = %.lr.ph.i, %_ZSt10accumulateIN9__gnu_cxx17__normal_iteratorIPKiSt6vectorIiSaIiEEEEiET0_T_S9_S8_.exit.i, %._crit_edge.i
  %.0.i = phi i32 [ %55, %._crit_edge.i ], [ 255, %_ZSt10accumulateIN9__gnu_cxx17__normal_iteratorIPKiSt6vectorIiSaIiEEEEiET0_T_S9_S8_.exit.i ], [ 255, %.lr.ph.i ]
  ret i32 %.0.i
}